; ModuleID = 'source-C-CXX/27/205.c'
source_filename = "source-C-CXX/27/205.c"
target datalayout = "e-m:e-p270:32:32-p271:32:32-p272:64:64-i64:64-f80:128-n8:16:32:64-S128"
target triple = "x86_64-pc-linux-gnu"

@.str = private unnamed_addr constant [4 x i8] c"%d,\00", align 1
@.str.1 = private unnamed_addr constant [4 x i8] c"%d\0A\00", align 1

; Function Attrs: nounwind sspstrong uwtable
define dso_local i32 @main() local_unnamed_addr #0 {
  %1 = alloca [3000 x i8], align 16
  %2 = alloca [300 x i32], align 16
  %3 = getelementptr inbounds [3000 x i8], [3000 x i8]* %1, i64 0, i64 0
  call void @llvm.lifetime.start.p0i8(i64 3000, i8* nonnull %3) #5
  %4 = call i32 (i8*, ...) bitcast (i32 (...)* @gets to i32 (i8*, ...)*)(i8* nonnull %3) #5
  %5 = bitcast [300 x i32]* %2 to i8*
  call void @llvm.lifetime.start.p0i8(i64 1200, i8* nonnull %5) #5
  call void @llvm.memset.p0i8.i64(i8* noundef nonnull align 16 dereferenceable(1200) %5, i8 0, i64 1200, i1 false)
  br label %6

6:                                                ; preds = %18, %0
  %7 = phi i32 [ %19, %18 ], [ 0, %0 ]
  %8 = phi i32 [ %29, %18 ], [ 0, %0 ]
  br label %9

9:                                                ; preds = %6, %30
  %10 = phi i32 [ %31, %30 ], [ %7, %6 ]
  %11 = sext i32 %10 to i64
  %12 = getelementptr inbounds [3000 x i8], [3000 x i8]* %1, i64 0, i64 %11
  %13 = load i8, i8* %12, align 1, !tbaa !5
  switch i8 %13, label %18 [
    i8 0, label %14
    i8 32, label %30
  ]

14:                                               ; preds = %9
  %15 = icmp eq i32 %8, 0
  br i1 %15, label %39, label %16

16:                                               ; preds = %14
  %17 = zext i32 %8 to i64
  br label %32

18:                                               ; preds = %9
  %19 = add nsw i32 %10, 1
  %20 = sext i32 %19 to i64
  %21 = getelementptr inbounds [3000 x i8], [3000 x i8]* %1, i64 0, i64 %20
  %22 = load i8, i8* %21, align 1, !tbaa !5
  %23 = icmp eq i8 %22, 32
  %24 = zext i32 %8 to i64
  %25 = getelementptr inbounds [300 x i32], [300 x i32]* %2, i64 0, i64 %24
  %26 = load i32, i32* %25, align 4, !tbaa !8
  %27 = add nsw i32 %26, 1
  store i32 %27, i32* %25, align 4, !tbaa !8
  %28 = zext i1 %23 to i32
  %29 = add nuw nsw i32 %8, %28
  br label %6, !llvm.loop !10

30:                                               ; preds = %9
  %31 = add nsw i32 %10, 1
  br label %9, !llvm.loop !10

32:                                               ; preds = %16, %32
  %33 = phi i64 [ 0, %16 ], [ %37, %32 ]
  %34 = getelementptr inbounds [300 x i32], [300 x i32]* %2, i64 0, i64 %33
  %35 = load i32, i32* %34, align 4, !tbaa !8
  %36 = call i32 (i8*, ...) @printf(i8* nonnull dereferenceable(1) getelementptr inbounds ([4 x i8], [4 x i8]* @.str, i64 0, i64 0), i32 %35)
  %37 = add nuw nsw i64 %33, 1
  %38 = icmp eq i64 %37, %17
  br i1 %38, label %39, label %32, !llvm.loop !12

39:                                               ; preds = %32, %14
  %40 = zext i32 %8 to i64
  %41 = getelementptr inbounds [300 x i32], [300 x i32]* %2, i64 0, i64 %40
  %42 = load i32, i32* %41, align 4, !tbaa !8
  %43 = call i32 (i8*, ...) @printf(i8* nonnull dereferenceable(1) getelementptr inbounds ([4 x i8], [4 x i8]* @.str.1, i64 0, i64 0), i32 %42)
  call void @llvm.lifetime.end.p0i8(i64 1200, i8* nonnull %5) #5
  call void @llvm.lifetime.end.p0i8(i64 3000, i8* nonnull %3) #5
  ret i32 0
}

; Function Attrs: argmemonly mustprogress nofree nosync nounwind willreturn
declare void @llvm.lifetime.start.p0i8(i64 immarg, i8* nocapture) #1

declare i32 @gets(...) local_unnamed_addr #2

; Function Attrs: argmemonly mustprogress nofree nounwind willreturn writeonly
declare void @llvm.memset.p0i8.i64(i8* nocapture writeonly, i8, i64, i1 immarg) #3

; Function Attrs: nofree nounwind
declare noundef i32 @printf(i8* nocapture noundef readonly, ...) local_unnamed_addr #4

; Function Attrs: argmemonly mustprogress nofree nosync nounwind willreturn
declare void @llvm.lifetime.end.p0i8(i64 immarg, i8* nocapture) #1


!llvm.module.flags = !{!0, !1, !2, !3}
!llvm.ident = !{!4}

!0 = !{i32 1, !"wchar_size", i32 4}
!1 = !{i32 7, !"PIC Level", i32 2}
!2 = !{i32 7, !"PIE Level", i32 2}
!3 = !{i32 7, !"uwtable", i32 1}
!4 = !{!"clang version 13.0.0"}
!5 = !{!6, !6, i64 0}
!6 = !{!"omnipotent char", !7, i64 0}
!7 = !{!"Simple C/C++ TBAA"}
!8 = !{!9, !9, i64 0}
!9 = !{!"int", !6, i64 0}
!10 = distinct !{!10, !11}
!11 = !{!"llvm.loop.mustprogress"}
!12 = distinct !{!12, !11}
